target datalayout = "e-m:e-p270:32:32-p271:32:32-p272:64:64-i64:64-i128:128-f80:128-n8:16:32:64-S128"
target triple = "x86_64-unknown-linux-gnu"

%"struct.node::AssertionInfo" = type { ptr, ptr, ptr }
%"struct.node::crypto::AESCipherConfig" = type { %"class.node::MemoryRetainer", i32, i32, ptr, i64, %"class.node::crypto::ByteSource", %"class.node::crypto::ByteSource", %"class.node::crypto::ByteSource" }
%"class.node::MemoryRetainer" = type { ptr }
%"class.node::crypto::ByteSource" = type { ptr, ptr, i64 }
%"class.std::__shared_ptr" = type { ptr, %"class.std::__shared_count" }
%"class.std::__shared_count" = type { ptr }

@_ZZN4node6crypto15AESCipherTraits8DoCipherEPNS_11EnvironmentESt10shared_ptrINS0_13KeyObjectDataEENS0_19WebCryptoCipherModeERKNS0_15AESCipherConfigERKNS0_10ByteSourceEPSB_E4args = internal constant %"struct.node::AssertionInfo" { ptr @.str.8, ptr @.str.7, ptr @.str.9 }, align 8

; Function Attrs: mustprogress nounwind uwtable
define linkonce_odr dso_local noundef ptr @_ZNKSt12__shared_ptrIN4node6crypto13KeyObjectDataELN9__gnu_cxx12_Lock_policyE2EE3getEv(ptr noundef nonnull align 8 dereferenceable(16) %this) #4 comdat align 2 {
entry:
  %this.addr = alloca ptr, align 8
  store ptr %this, ptr %this.addr, align 8
  %this1 = load ptr, ptr %this.addr, align 8
  %_M_ptr = getelementptr inbounds %"class.std::__shared_ptr", ptr %this1, i32 0, i32 0
  %0 = load ptr, ptr %_M_ptr, align 8
  ret ptr %0
}

; Function Attrs: mustprogress nounwind uwtable
define dso_local noundef i32 @_ZN4node6crypto15AESCipherTraits8DoCipherEPNS_11EnvironmentESt10shared_ptrINS0_13KeyObjectDataEENS0_19WebCryptoCipherModeERKNS0_15AESCipherConfigERKNS0_10ByteSourceEPSB_(ptr noundef %env, ptr noundef %key_data, i32 noundef %cipher_mode, ptr noundef nonnull align 8 dereferenceable(104) %params, ptr noundef nonnull align 8 dereferenceable(24) %in, ptr noundef %out) #4 align 2 {
entry:
  %retval = alloca i32, align 4
  %env.addr = alloca ptr, align 8
  %key_data.indirect_addr = alloca ptr, align 8
  %cipher_mode.addr = alloca i32, align 4
  %params.addr = alloca ptr, align 8
  %in.addr = alloca ptr, align 8
  %out.addr = alloca ptr, align 8
  store ptr %env, ptr %env.addr, align 8
  store ptr %key_data, ptr %key_data.indirect_addr, align 8
  store i32 %cipher_mode, ptr %cipher_mode.addr, align 4
  store ptr %params, ptr %params.addr, align 8
  store ptr %in, ptr %in.addr, align 8
  store ptr %out, ptr %out.addr, align 8
  %0 = load ptr, ptr %params.addr, align 8
  %variant = getelementptr inbounds %"struct.node::crypto::AESCipherConfig", ptr %0, i32 0, i32 2
  %1 = load i32, ptr %variant, align 4
  switch i32 %1, label %sw.default [
    i32 0, label %sw.bb
    i32 1, label %sw.bb2
    i32 2, label %sw.bb5
    i32 3, label %sw.bb8
    i32 4, label %sw.bb11
    i32 5, label %sw.bb14
    i32 6, label %sw.bb17
    i32 7, label %sw.bb20
    i32 8, label %sw.bb23
    i32 9, label %sw.bb26
    i32 10, label %sw.bb29
    i32 11, label %sw.bb32
  ]

sw.bb:                                            ; preds = %entry
  %2 = load ptr, ptr %env.addr, align 8
  %call = call noundef ptr @_ZNKSt12__shared_ptrIN4node6crypto13KeyObjectDataELN9__gnu_cxx12_Lock_policyE2EE3getEv(ptr noundef nonnull align 8 dereferenceable(16) %key_data) #3
  %3 = load i32, ptr %cipher_mode.addr, align 4
  %4 = load ptr, ptr %params.addr, align 8
  %5 = load ptr, ptr %in.addr, align 8
  %6 = load ptr, ptr %out.addr, align 8
  %call1 = call noundef i32 @_ZN4node6crypto12_GLOBAL__N_114AES_CTR_CipherEPNS_11EnvironmentEPNS0_13KeyObjectDataENS0_19WebCryptoCipherModeERKNS0_15AESCipherConfigERKNS0_10ByteSourceEPSA_(ptr noundef %2, ptr noundef %call, i32 noundef %3, ptr noundef nonnull align 8 dereferenceable(104) %4, ptr noundef nonnull align 8 dereferenceable(24) %5, ptr noundef %6)
  store i32 %call1, ptr %retval, align 4
  br label %return

sw.bb2:                                           ; preds = %entry
  %7 = load ptr, ptr %env.addr, align 8
  %call3 = call noundef ptr @_ZNKSt12__shared_ptrIN4node6crypto13KeyObjectDataELN9__gnu_cxx12_Lock_policyE2EE3getEv(ptr noundef nonnull align 8 dereferenceable(16) %key_data) #3
  %8 = load i32, ptr %cipher_mode.addr, align 4
  %9 = load ptr, ptr %params.addr, align 8
  %10 = load ptr, ptr %in.addr, align 8
  %11 = load ptr, ptr %out.addr, align 8
  %call4 = call noundef i32 @_ZN4node6crypto12_GLOBAL__N_114AES_CTR_CipherEPNS_11EnvironmentEPNS0_13KeyObjectDataENS0_19WebCryptoCipherModeERKNS0_15AESCipherConfigERKNS0_10ByteSourceEPSA_(ptr noundef %7, ptr noundef %call3, i32 noundef %8, ptr noundef nonnull align 8 dereferenceable(104) %9, ptr noundef nonnull align 8 dereferenceable(24) %10, ptr noundef %11)
  store i32 %call4, ptr %retval, align 4
  br label %return

sw.bb5:                                           ; preds = %entry
  %12 = load ptr, ptr %env.addr, align 8
  %call6 = call noundef ptr @_ZNKSt12__shared_ptrIN4node6crypto13KeyObjectDataELN9__gnu_cxx12_Lock_policyE2EE3getEv(ptr noundef nonnull align 8 dereferenceable(16) %key_data) #3
  %13 = load i32, ptr %cipher_mode.addr, align 4
  %14 = load ptr, ptr %params.addr, align 8
  %15 = load ptr, ptr %in.addr, align 8
  %16 = load ptr, ptr %out.addr, align 8
  %call7 = call noundef i32 @_ZN4node6crypto12_GLOBAL__N_114AES_CTR_CipherEPNS_11EnvironmentEPNS0_13KeyObjectDataENS0_19WebCryptoCipherModeERKNS0_15AESCipherConfigERKNS0_10ByteSourceEPSA_(ptr noundef %12, ptr noundef %call6, i32 noundef %13, ptr noundef nonnull align 8 dereferenceable(104) %14, ptr noundef nonnull align 8 dereferenceable(24) %15, ptr noundef %16)
  store i32 %call7, ptr %retval, align 4
  br label %return

sw.bb8:                                           ; preds = %entry
  %17 = load ptr, ptr %env.addr, align 8
  %call9 = call noundef ptr @_ZNKSt12__shared_ptrIN4node6crypto13KeyObjectDataELN9__gnu_cxx12_Lock_policyE2EE3getEv(ptr noundef nonnull align 8 dereferenceable(16) %key_data) #3
  %18 = load i32, ptr %cipher_mode.addr, align 4
  %19 = load ptr, ptr %params.addr, align 8
  %20 = load ptr, ptr %in.addr, align 8
  %21 = load ptr, ptr %out.addr, align 8
  %call10 = call noundef i32 @_ZN4node6crypto12_GLOBAL__N_110AES_CipherEPNS_11EnvironmentEPNS0_13KeyObjectDataENS0_19WebCryptoCipherModeERKNS0_15AESCipherConfigERKNS0_10ByteSourceEPSA_(ptr noundef %17, ptr noundef %call9, i32 noundef %18, ptr noundef nonnull align 8 dereferenceable(104) %19, ptr noundef nonnull align 8 dereferenceable(24) %20, ptr noundef %21)
  store i32 %call10, ptr %retval, align 4
  br label %return

sw.bb11:                                          ; preds = %entry
  %22 = load ptr, ptr %env.addr, align 8
  %call12 = call noundef ptr @_ZNKSt12__shared_ptrIN4node6crypto13KeyObjectDataELN9__gnu_cxx12_Lock_policyE2EE3getEv(ptr noundef nonnull align 8 dereferenceable(16) %key_data) #3
  %23 = load i32, ptr %cipher_mode.addr, align 4
  %24 = load ptr, ptr %params.addr, align 8
  %25 = load ptr, ptr %in.addr, align 8
  %26 = load ptr, ptr %out.addr, align 8
  %call13 = call noundef i32 @_ZN4node6crypto12_GLOBAL__N_110AES_CipherEPNS_11EnvironmentEPNS0_13KeyObjectDataENS0_19WebCryptoCipherModeERKNS0_15AESCipherConfigERKNS0_10ByteSourceEPSA_(ptr noundef %22, ptr noundef %call12, i32 noundef %23, ptr noundef nonnull align 8 dereferenceable(104) %24, ptr noundef nonnull align 8 dereferenceable(24) %25, ptr noundef %26)
  store i32 %call13, ptr %retval, align 4
  br label %return

sw.bb14:                                          ; preds = %entry
  %27 = load ptr, ptr %env.addr, align 8
  %call15 = call noundef ptr @_ZNKSt12__shared_ptrIN4node6crypto13KeyObjectDataELN9__gnu_cxx12_Lock_policyE2EE3getEv(ptr noundef nonnull align 8 dereferenceable(16) %key_data) #3
  %28 = load i32, ptr %cipher_mode.addr, align 4
  %29 = load ptr, ptr %params.addr, align 8
  %30 = load ptr, ptr %in.addr, align 8
  %31 = load ptr, ptr %out.addr, align 8
  %call16 = call noundef i32 @_ZN4node6crypto12_GLOBAL__N_110AES_CipherEPNS_11EnvironmentEPNS0_13KeyObjectDataENS0_19WebCryptoCipherModeERKNS0_15AESCipherConfigERKNS0_10ByteSourceEPSA_(ptr noundef %27, ptr noundef %call15, i32 noundef %28, ptr noundef nonnull align 8 dereferenceable(104) %29, ptr noundef nonnull align 8 dereferenceable(24) %30, ptr noundef %31)
  store i32 %call16, ptr %retval, align 4
  br label %return

sw.bb17:                                          ; preds = %entry
  %32 = load ptr, ptr %env.addr, align 8
  %call18 = call noundef ptr @_ZNKSt12__shared_ptrIN4node6crypto13KeyObjectDataELN9__gnu_cxx12_Lock_policyE2EE3getEv(ptr noundef nonnull align 8 dereferenceable(16) %key_data) #3
  %33 = load i32, ptr %cipher_mode.addr, align 4
  %34 = load ptr, ptr %params.addr, align 8
  %35 = load ptr, ptr %in.addr, align 8
  %36 = load ptr, ptr %out.addr, align 8
  %call19 = call noundef i32 @_ZN4node6crypto12_GLOBAL__N_110AES_CipherEPNS_11EnvironmentEPNS0_13KeyObjectDataENS0_19WebCryptoCipherModeERKNS0_15AESCipherConfigERKNS0_10ByteSourceEPSA_(ptr noundef %32, ptr noundef %call18, i32 noundef %33, ptr noundef nonnull align 8 dereferenceable(104) %34, ptr noundef nonnull align 8 dereferenceable(24) %35, ptr noundef %36)
  store i32 %call19, ptr %retval, align 4
  br label %return

sw.bb20:                                          ; preds = %entry
  %37 = load ptr, ptr %env.addr, align 8
  %call21 = call noundef ptr @_ZNKSt12__shared_ptrIN4node6crypto13KeyObjectDataELN9__gnu_cxx12_Lock_policyE2EE3getEv(ptr noundef nonnull align 8 dereferenceable(16) %key_data) #3
  %38 = load i32, ptr %cipher_mode.addr, align 4
  %39 = load ptr, ptr %params.addr, align 8
  %40 = load ptr, ptr %in.addr, align 8
  %41 = load ptr, ptr %out.addr, align 8
  %call22 = call noundef i32 @_ZN4node6crypto12_GLOBAL__N_110AES_CipherEPNS_11EnvironmentEPNS0_13KeyObjectDataENS0_19WebCryptoCipherModeERKNS0_15AESCipherConfigERKNS0_10ByteSourceEPSA_(ptr noundef %37, ptr noundef %call21, i32 noundef %38, ptr noundef nonnull align 8 dereferenceable(104) %39, ptr noundef nonnull align 8 dereferenceable(24) %40, ptr noundef %41)
  store i32 %call22, ptr %retval, align 4
  br label %return

sw.bb23:                                          ; preds = %entry
  %42 = load ptr, ptr %env.addr, align 8
  %call24 = call noundef ptr @_ZNKSt12__shared_ptrIN4node6crypto13KeyObjectDataELN9__gnu_cxx12_Lock_policyE2EE3getEv(ptr noundef nonnull align 8 dereferenceable(16) %key_data) #3
  %43 = load i32, ptr %cipher_mode.addr, align 4
  %44 = load ptr, ptr %params.addr, align 8
  %45 = load ptr, ptr %in.addr, align 8
  %46 = load ptr, ptr %out.addr, align 8
  %call25 = call noundef i32 @_ZN4node6crypto12_GLOBAL__N_110AES_CipherEPNS_11EnvironmentEPNS0_13KeyObjectDataENS0_19WebCryptoCipherModeERKNS0_15AESCipherConfigERKNS0_10ByteSourceEPSA_(ptr noundef %42, ptr noundef %call24, i32 noundef %43, ptr noundef nonnull align 8 dereferenceable(104) %44, ptr noundef nonnull align 8 dereferenceable(24) %45, ptr noundef %46)
  store i32 %call25, ptr %retval, align 4
  br label %return

sw.bb26:                                          ; preds = %entry
  %47 = load ptr, ptr %env.addr, align 8
  %call27 = call noundef ptr @_ZNKSt12__shared_ptrIN4node6crypto13KeyObjectDataELN9__gnu_cxx12_Lock_policyE2EE3getEv(ptr noundef nonnull align 8 dereferenceable(16) %key_data) #3
  %48 = load i32, ptr %cipher_mode.addr, align 4
  %49 = load ptr, ptr %params.addr, align 8
  %50 = load ptr, ptr %in.addr, align 8
  %51 = load ptr, ptr %out.addr, align 8
  %call28 = call noundef i32 @_ZN4node6crypto12_GLOBAL__N_110AES_CipherEPNS_11EnvironmentEPNS0_13KeyObjectDataENS0_19WebCryptoCipherModeERKNS0_15AESCipherConfigERKNS0_10ByteSourceEPSA_(ptr noundef %47, ptr noundef %call27, i32 noundef %48, ptr noundef nonnull align 8 dereferenceable(104) %49, ptr noundef nonnull align 8 dereferenceable(24) %50, ptr noundef %51)
  store i32 %call28, ptr %retval, align 4
  br label %return

sw.bb29:                                          ; preds = %entry
  %52 = load ptr, ptr %env.addr, align 8
  %call30 = call noundef ptr @_ZNKSt12__shared_ptrIN4node6crypto13KeyObjectDataELN9__gnu_cxx12_Lock_policyE2EE3getEv(ptr noundef nonnull align 8 dereferenceable(16) %key_data) #3
  %53 = load i32, ptr %cipher_mode.addr, align 4
  %54 = load ptr, ptr %params.addr, align 8
  %55 = load ptr, ptr %in.addr, align 8
  %56 = load ptr, ptr %out.addr, align 8
  %call31 = call noundef i32 @_ZN4node6crypto12_GLOBAL__N_110AES_CipherEPNS_11EnvironmentEPNS0_13KeyObjectDataENS0_19WebCryptoCipherModeERKNS0_15AESCipherConfigERKNS0_10ByteSourceEPSA_(ptr noundef %52, ptr noundef %call30, i32 noundef %53, ptr noundef nonnull align 8 dereferenceable(104) %54, ptr noundef nonnull align 8 dereferenceable(24) %55, ptr noundef %56)
  store i32 %call31, ptr %retval, align 4
  br label %return

sw.bb32:                                          ; preds = %entry
  %57 = load ptr, ptr %env.addr, align 8
  %call33 = call noundef ptr @_ZNKSt12__shared_ptrIN4node6crypto13KeyObjectDataELN9__gnu_cxx12_Lock_policyE2EE3getEv(ptr noundef nonnull align 8 dereferenceable(16) %key_data) #3
  %58 = load i32, ptr %cipher_mode.addr, align 4
  %59 = load ptr, ptr %params.addr, align 8
  %60 = load ptr, ptr %in.addr, align 8
  %61 = load ptr, ptr %out.addr, align 8
  %call34 = call noundef i32 @_ZN4node6crypto12_GLOBAL__N_110AES_CipherEPNS_11EnvironmentEPNS0_13KeyObjectDataENS0_19WebCryptoCipherModeERKNS0_15AESCipherConfigERKNS0_10ByteSourceEPSA_(ptr noundef %57, ptr noundef %call33, i32 noundef %58, ptr noundef nonnull align 8 dereferenceable(104) %59, ptr noundef nonnull align 8 dereferenceable(24) %60, ptr noundef %61)
  store i32 %call34, ptr %retval, align 4
  br label %return

sw.default:                                       ; preds = %entry
  br label %do.body

do.body:                                          ; preds = %sw.default
  call void @_ZN4node6AssertERKNS_13AssertionInfoE(ptr noundef nonnull align 8 dereferenceable(24) @_ZZN4node6crypto15AESCipherTraits8DoCipherEPNS_11EnvironmentESt10shared_ptrINS0_13KeyObjectDataEENS0_19WebCryptoCipherModeERKNS0_15AESCipherConfigERKNS0_10ByteSourceEPSB_E4args)
  call void @abort() #14
  unreachable

do.end:                                           ; No predecessors!
  br label %sw.epilog

sw.epilog:                                        ; preds = %do.end
  call void @llvm.trap()
  unreachable

return:                                           ; preds = %sw.bb32, %sw.bb29, %sw.bb26, %sw.bb23, %sw.bb20, %sw.bb17, %sw.bb14, %sw.bb11, %sw.bb8, %sw.bb5, %sw.bb2, %sw.bb
  %62 = load i32, ptr %retval, align 4
  ret i32 %62
}