; Function Attrs: mustprogress nounwind uwtable
define dso_local noundef i32 @_ZN4node6crypto15AESCipherTraits8DoCipherEPNS_11EnvironmentESt10shared_ptrINS0_13KeyObjectDataEENS0_19WebCryptoCipherModeERKNS0_15AESCipherConfigERKNS0_10ByteSourceEPSB_(ptr nocapture readnone %env, ptr nocapture noundef readonly %key_data, i32 noundef %cipher_mode, ptr nocapture noundef nonnull readonly align 8 dereferenceable(104) %params, ptr nocapture noundef nonnull readonly align 8 dereferenceable(24) %in, ptr noundef %out) local_unnamed_addr #3 align 2 {
entry:
  %variant = getelementptr inbounds i8, ptr %params, i64 12
  %0 = load i32, ptr %variant, align 4
  switch i32 %0, label %do.body [
    i32 0, label %sw.bb
    i32 1, label %sw.bb2
    i32 2, label %sw.bb5
    i32 3, label %sw.bb8
    i32 4, label %sw.bb11
    i32 5, label %sw.bb14
    i32 6, label %sw.bb17
    i32 7, label %sw.bb20
    i32 8, label %sw.bb23
    i32 9, label %sw.bb26
    i32 10, label %sw.bb29
    i32 11, label %sw.bb32
  ]

sw.bb:                                            ; preds = %entry
  %1 = load ptr, ptr %key_data, align 8
  %call1 = tail call fastcc noundef i32 @_ZN4node6crypto12_GLOBAL__N_114AES_CTR_CipherEPNS_11EnvironmentEPNS0_13KeyObjectDataENS0_19WebCryptoCipherModeERKNS0_15AESCipherConfigERKNS0_10ByteSourceEPSA_(ptr noundef %1, i32 noundef %cipher_mode, ptr noundef nonnull align 8 dereferenceable(104) %params, ptr noundef nonnull align 8 dereferenceable(24) %in, ptr noundef %out)
  br label %return

sw.bb2:                                           ; preds = %entry
  %2 = load ptr, ptr %key_data, align 8
  %call4 = tail call fastcc noundef i32 @_ZN4node6crypto12_GLOBAL__N_114AES_CTR_CipherEPNS_11EnvironmentEPNS0_13KeyObjectDataENS0_19WebCryptoCipherModeERKNS0_15AESCipherConfigERKNS0_10ByteSourceEPSA_(ptr noundef %2, i32 noundef %cipher_mode, ptr noundef nonnull align 8 dereferenceable(104) %params, ptr noundef nonnull align 8 dereferenceable(24) %in, ptr noundef %out)
  br label %return

sw.bb5:                                           ; preds = %entry
  %3 = load ptr, ptr %key_data, align 8
  %call7 = tail call fastcc noundef i32 @_ZN4node6crypto12_GLOBAL__N_114AES_CTR_CipherEPNS_11EnvironmentEPNS0_13KeyObjectDataENS0_19WebCryptoCipherModeERKNS0_15AESCipherConfigERKNS0_10ByteSourceEPSA_(ptr noundef %3, i32 noundef %cipher_mode, ptr noundef nonnull align 8 dereferenceable(104) %params, ptr noundef nonnull align 8 dereferenceable(24) %in, ptr noundef %out)
  br label %return

sw.bb8:                                           ; preds = %entry
  %4 = load ptr, ptr %key_data, align 8
  %call10 = tail call fastcc noundef i32 @_ZN4node6crypto12_GLOBAL__N_110AES_CipherEPNS_11EnvironmentEPNS0_13KeyObjectDataENS0_19WebCryptoCipherModeERKNS0_15AESCipherConfigERKNS0_10ByteSourceEPSA_(ptr noundef %4, i32 noundef %cipher_mode, ptr noundef nonnull align 8 dereferenceable(104) %params, ptr noundef nonnull align 8 dereferenceable(24) %in, ptr noundef %out)
  br label %return

sw.bb11:                                          ; preds = %entry
  %5 = load ptr, ptr %key_data, align 8
  %call13 = tail call fastcc noundef i32 @_ZN4node6crypto12_GLOBAL__N_110AES_CipherEPNS_11EnvironmentEPNS0_13KeyObjectDataENS0_19WebCryptoCipherModeERKNS0_15AESCipherConfigERKNS0_10ByteSourceEPSA_(ptr noundef %5, i32 noundef %cipher_mode, ptr noundef nonnull align 8 dereferenceable(104) %params, ptr noundef nonnull align 8 dereferenceable(24) %in, ptr noundef %out)
  br label %return

sw.bb14:                                          ; preds = %entry
  %6 = load ptr, ptr %key_data, align 8
  %call16 = tail call fastcc noundef i32 @_ZN4node6crypto12_GLOBAL__N_110AES_CipherEPNS_11EnvironmentEPNS0_13KeyObjectDataENS0_19WebCryptoCipherModeERKNS0_15AESCipherConfigERKNS0_10ByteSourceEPSA_(ptr noundef %6, i32 noundef %cipher_mode, ptr noundef nonnull align 8 dereferenceable(104) %params, ptr noundef nonnull align 8 dereferenceable(24) %in, ptr noundef %out)
  br label %return

sw.bb17:                                          ; preds = %entry
  %7 = load ptr, ptr %key_data, align 8
  %call19 = tail call fastcc noundef i32 @_ZN4node6crypto12_GLOBAL__N_110AES_CipherEPNS_11EnvironmentEPNS0_13KeyObjectDataENS0_19WebCryptoCipherModeERKNS0_15AESCipherConfigERKNS0_10ByteSourceEPSA_(ptr noundef %7, i32 noundef %cipher_mode, ptr noundef nonnull align 8 dereferenceable(104) %params, ptr noundef nonnull align 8 dereferenceable(24) %in, ptr noundef %out)
  br label %return

sw.bb20:                                          ; preds = %entry
  %8 = load ptr, ptr %key_data, align 8
  %call22 = tail call fastcc noundef i32 @_ZN4node6crypto12_GLOBAL__N_110AES_CipherEPNS_11EnvironmentEPNS0_13KeyObjectDataENS0_19WebCryptoCipherModeERKNS0_15AESCipherConfigERKNS0_10ByteSourceEPSA_(ptr noundef %8, i32 noundef %cipher_mode, ptr noundef nonnull align 8 dereferenceable(104) %params, ptr noundef nonnull align 8 dereferenceable(24) %in, ptr noundef %out)
  br label %return

sw.bb23:                                          ; preds = %entry
  %9 = load ptr, ptr %key_data, align 8
  %call25 = tail call fastcc noundef i32 @_ZN4node6crypto12_GLOBAL__N_110AES_CipherEPNS_11EnvironmentEPNS0_13KeyObjectDataENS0_19WebCryptoCipherModeERKNS0_15AESCipherConfigERKNS0_10ByteSourceEPSA_(ptr noundef %9, i32 noundef %cipher_mode, ptr noundef nonnull align 8 dereferenceable(104) %params, ptr noundef nonnull align 8 dereferenceable(24) %in, ptr noundef %out)
  br label %return

sw.bb26:                                          ; preds = %entry
  %10 = load ptr, ptr %key_data, align 8
  %call28 = tail call fastcc noundef i32 @_ZN4node6crypto12_GLOBAL__N_110AES_CipherEPNS_11EnvironmentEPNS0_13KeyObjectDataENS0_19WebCryptoCipherModeERKNS0_15AESCipherConfigERKNS0_10ByteSourceEPSA_(ptr noundef %10, i32 noundef %cipher_mode, ptr noundef nonnull align 8 dereferenceable(104) %params, ptr noundef nonnull align 8 dereferenceable(24) %in, ptr noundef %out)
  br label %return

sw.bb29:                                          ; preds = %entry
  %11 = load ptr, ptr %key_data, align 8
  %call31 = tail call fastcc noundef i32 @_ZN4node6crypto12_GLOBAL__N_110AES_CipherEPNS_11EnvironmentEPNS0_13KeyObjectDataENS0_19WebCryptoCipherModeERKNS0_15AESCipherConfigERKNS0_10ByteSourceEPSA_(ptr noundef %11, i32 noundef %cipher_mode, ptr noundef nonnull align 8 dereferenceable(104) %params, ptr noundef nonnull align 8 dereferenceable(24) %in, ptr noundef %out)
  br label %return

sw.bb32:                                          ; preds = %entry
  %12 = load ptr, ptr %key_data, align 8
  %call34 = tail call fastcc noundef i32 @_ZN4node6crypto12_GLOBAL__N_110AES_CipherEPNS_11EnvironmentEPNS0_13KeyObjectDataENS0_19WebCryptoCipherModeERKNS0_15AESCipherConfigERKNS0_10ByteSourceEPSA_(ptr noundef %12, i32 noundef %cipher_mode, ptr noundef nonnull align 8 dereferenceable(104) %params, ptr noundef nonnull align 8 dereferenceable(24) %in, ptr noundef %out)
  br label %return

do.body:                                          ; preds = %entry
  tail call void @_ZN4node6AssertERKNS_13AssertionInfoE(ptr noundef nonnull align 8 dereferenceable(24) @_ZZN4node6crypto15AESCipherTraits8DoCipherEPNS_11EnvironmentESt10shared_ptrINS0_13KeyObjectDataEENS0_19WebCryptoCipherModeERKNS0_15AESCipherConfigERKNS0_10ByteSourceEPSB_E4args) #16
  tail call void @abort() #18
  unreachable

return:                                           ; preds = %sw.bb32, %sw.bb29, %sw.bb26, %sw.bb23, %sw.bb20, %sw.bb17, %sw.bb14, %sw.bb11, %sw.bb8, %sw.bb5, %sw.bb2, %sw.bb
  %retval.0 = phi i32 [ %call34, %sw.bb32 ], [ %call31, %sw.bb29 ], [ %call28, %sw.bb26 ], [ %call25, %sw.bb23 ], [ %call22, %sw.bb20 ], [ %call19, %sw.bb17 ], [ %call16, %sw.bb14 ], [ %call13, %sw.bb11 ], [ %call10, %sw.bb8 ], [ %call7, %sw.bb5 ], [ %call4, %sw.bb2 ], [ %call1, %sw.bb ]
  ret i32 %retval.0
}